target datalayout = "e-m:e-p270:32:32-p271:32:32-p272:64:64-i64:64-i128:128-f80:128-n8:16:32:64-S128"
target triple = "x86_64-pc-linux-gnu"

; Function Attrs: inlinehint nounwind uwtable
define internal zeroext i1 @phar_validate_alias(ptr noundef %0, i64 noundef %1) #12 {
  %3 = alloca ptr, align 8
  %4 = alloca i64, align 8
  store ptr %0, ptr %3, align 8, !tbaa !9
  store i64 %1, ptr %4, align 8, !tbaa !11
  %5 = load ptr, ptr %3, align 8, !tbaa !9
  %6 = load i64, ptr %4, align 8, !tbaa !11
  %7 = call ptr @memchr(ptr noundef %5, i32 noundef 47, i64 noundef %6) #16
  %8 = icmp ne ptr %7, null
  br i1 %8, label %34, label %9

9:                                                ; preds = %2
  %10 = load ptr, ptr %3, align 8, !tbaa !9
  %11 = load i64, ptr %4, align 8, !tbaa !11
  %12 = call ptr @memchr(ptr noundef %10, i32 noundef 92, i64 noundef %11) #16
  %13 = icmp ne ptr %12, null
  br i1 %13, label %34, label %14

14:                                               ; preds = %9
  %15 = load ptr, ptr %3, align 8, !tbaa !9
  %16 = load i64, ptr %4, align 8, !tbaa !11
  %17 = call ptr @memchr(ptr noundef %15, i32 noundef 58, i64 noundef %16) #16
  %18 = icmp ne ptr %17, null
  br i1 %18, label %34, label %19

19:                                               ; preds = %14
  %20 = load ptr, ptr %3, align 8, !tbaa !9
  %21 = load i64, ptr %4, align 8, !tbaa !11
  %22 = call ptr @memchr(ptr noundef %20, i32 noundef 59, i64 noundef %21) #16
  %23 = icmp ne ptr %22, null
  br i1 %23, label %34, label %24

24:                                               ; preds = %19
  %25 = load ptr, ptr %3, align 8, !tbaa !9
  %26 = load i64, ptr %4, align 8, !tbaa !11
  %27 = call ptr @memchr(ptr noundef %25, i32 noundef 10, i64 noundef %26) #16
  %28 = icmp ne ptr %27, null
  br i1 %28, label %34, label %29

29:                                               ; preds = %24
  %30 = load ptr, ptr %3, align 8, !tbaa !9
  %31 = load i64, ptr %4, align 8, !tbaa !11
  %32 = call ptr @memchr(ptr noundef %30, i32 noundef 13, i64 noundef %31) #16
  %33 = icmp ne ptr %32, null
  br label %34

34:                                               ; preds = %29, %24, %19, %14, %9, %2
  %35 = phi i1 [ true, %24 ], [ true, %19 ], [ true, %14 ], [ true, %9 ], [ true, %2 ], [ %33, %29 ]
  %36 = xor i1 %35, true
  ret i1 %36
}