; Function Attrs: inlinehint mustprogress nofree nounwind willreturn memory(argmem: read) uwtable
define internal fastcc zeroext i1 @phar_validate_alias(ptr noundef nonnull readonly %0, i64 noundef range(i64 0, 4294967296) %1) unnamed_addr #11 {
  %3 = tail call ptr @memchr(ptr noundef nonnull %0, i32 noundef 47, i64 noundef %1) #17
  %.not = icmp eq ptr %3, null
  br i1 %.not, label %4, label %15

4:                                                ; preds = %2
  %5 = tail call ptr @memchr(ptr noundef nonnull %0, i32 noundef 92, i64 noundef %1) #17
  %.not11 = icmp eq ptr %5, null
  br i1 %.not11, label %6, label %15

6:                                                ; preds = %4
  %7 = tail call ptr @memchr(ptr noundef nonnull %0, i32 noundef 58, i64 noundef %1) #17
  %.not12 = icmp eq ptr %7, null
  br i1 %.not12, label %8, label %15

8:                                                ; preds = %6
  %9 = tail call ptr @memchr(ptr noundef nonnull %0, i32 noundef 59, i64 noundef %1) #17
  %.not13 = icmp eq ptr %9, null
  br i1 %.not13, label %10, label %15

10:                                               ; preds = %8
  %11 = tail call ptr @memchr(ptr noundef nonnull %0, i32 noundef 10, i64 noundef %1) #17
  %.not14 = icmp eq ptr %11, null
  br i1 %.not14, label %12, label %15

12:                                               ; preds = %10
  %13 = tail call ptr @memchr(ptr noundef nonnull %0, i32 noundef 13, i64 noundef %1) #17
  %14 = icmp eq ptr %13, null
  br label %15

15:                                               ; preds = %12, %10, %8, %6, %4, %2
  %16 = phi i1 [ false, %10 ], [ false, %8 ], [ false, %6 ], [ false, %4 ], [ false, %2 ], [ %14, %12 ]
  ret i1 %16
}